; Function Attrs: mustprogress nofree norecurse nosync nounwind willreturn memory(write, argmem: readwrite, inaccessiblemem: none) uwtable
define dso_local void @Curl_dyn_reset(ptr noundef captures(none) %0) local_unnamed_addr #2 {
  %2 = getelementptr inbounds nuw i8, ptr %0, i64 8
  %3 = load i64, ptr %2, align 8, !tbaa !13
  %.not = icmp eq i64 %3, 0
  br i1 %.not, label %6, label %4

4:                                                ; preds = %1
  %5 = load ptr, ptr %0, align 8, !tbaa !12
  store i8 0, ptr %5, align 1, !tbaa !14
  br label %6

6:                                                ; preds = %4, %1
  store i64 0, ptr %2, align 8, !tbaa !13
  ret void
}